target datalayout = "e-m:e-p270:32:32-p271:32:32-p272:64:64-i64:64-i128:128-f80:128-n8:16:32:64-S128"
target triple = "x86_64-pc-linux-gnu"

%struct.H5VL_wrap_ctx_t = type { i32, ptr, ptr }

@.str.2 = private unnamed_addr constant [101 x i8] c"generated/home/dtcxzyw/WorkSpace/Projects/compilers/llvm-opt-benchmark/bench/hdf5/hdf5/src/H5VLint.c\00", align 1
@H5E_VOL_g = external global i64, align 8
@H5E_BADVALUE_g = external global i64, align 8
@H5E_CANTRELEASE_g = external global i64, align 8
@.str.87 = private unnamed_addr constant [28 x i8] c"no VOL object wrap context?\00", align 1
@.str.88 = private unnamed_addr constant [38 x i8] c"bad VOL object wrap context refcount?\00", align 1
@__func__.H5VL_dec_vol_wrapper = private unnamed_addr constant [21 x i8] c"H5VL_dec_vol_wrapper\00", align 1
@.str.89 = private unnamed_addr constant [46 x i8] c"unable to release VOL object wrapping context\00", align 1

; Function Attrs: nounwind uwtable
define i32 @H5VL_dec_vol_wrapper(ptr noundef %0) #0 {
  %2 = alloca ptr, align 8
  %3 = alloca ptr, align 8
  %4 = alloca i32, align 4
  %5 = alloca i8, align 1
  store ptr %0, ptr %2, align 8
  %6 = load ptr, ptr %2, align 8
  store ptr %6, ptr %3, align 8
  store i32 0, ptr %4, align 4
  store i8 0, ptr %5, align 1
  %7 = load ptr, ptr %3, align 8
  %8 = icmp eq ptr null, %7
  br i1 %8, label %9, label %24

9:                                                ; preds = %1
  br label %10

10:                                               ; preds = %9
  br label %11

11:                                               ; preds = %10
  br label %12

12:                                               ; preds = %11
  %13 = load i64, ptr @H5E_VOL_g, align 8
  %14 = load i64, ptr @H5E_BADVALUE_g, align 8
  %15 = call i32 (ptr, ptr, i32, i64, i64, ptr, ...) @H5E_printf_stack(ptr noundef @.str.2, ptr noundef @__func__.H5VL_dec_vol_wrapper, i32 noundef 2317, i64 noundef %13, i64 noundef %14, ptr noundef @.str.87)
  br label %16

16:                                               ; preds = %12
  store i8 1, ptr %5, align 1
  %17 = load i8, ptr %5, align 1
  %18 = trunc i8 %17 to i1
  %19 = zext i1 %18 to i8
  store i8 %19, ptr %5, align 1
  br label %20

20:                                               ; preds = %16
  br label %21

21:                                               ; preds = %20
  store i32 -1, ptr %4, align 4
  br label %74

22:                                               ; No predecessors!
  br label %23

23:                                               ; preds = %22
  br label %24

24:                                               ; preds = %23, %1
  %25 = load ptr, ptr %3, align 8
  %26 = getelementptr inbounds %struct.H5VL_wrap_ctx_t, ptr %25, i32 0, i32 0
  %27 = load i32, ptr %26, align 8
  %28 = icmp eq i32 0, %27
  br i1 %28, label %29, label %44

29:                                               ; preds = %24
  br label %30

30:                                               ; preds = %29
  br label %31

31:                                               ; preds = %30
  br label %32

32:                                               ; preds = %31
  %33 = load i64, ptr @H5E_VOL_g, align 8
  %34 = load i64, ptr @H5E_BADVALUE_g, align 8
  %35 = call i32 (ptr, ptr, i32, i64, i64, ptr, ...) @H5E_printf_stack(ptr noundef @.str.2, ptr noundef @__func__.H5VL_dec_vol_wrapper, i32 noundef 2319, i64 noundef %33, i64 noundef %34, ptr noundef @.str.88)
  br label %36

36:                                               ; preds = %32
  store i8 1, ptr %5, align 1
  %37 = load i8, ptr %5, align 1
  %38 = trunc i8 %37 to i1
  %39 = zext i1 %38 to i8
  store i8 %39, ptr %5, align 1
  br label %40

40:                                               ; preds = %36
  br label %41

41:                                               ; preds = %40
  store i32 -1, ptr %4, align 4
  br label %74

42:                                               ; No predecessors!
  br label %43

43:                                               ; preds = %42
  br label %44

44:                                               ; preds = %43, %24
  %45 = load ptr, ptr %3, align 8
  %46 = getelementptr inbounds %struct.H5VL_wrap_ctx_t, ptr %45, i32 0, i32 0
  %47 = load i32, ptr %46, align 8
  %48 = add i32 %47, -1
  store i32 %48, ptr %46, align 8
  %49 = load ptr, ptr %3, align 8
  %50 = getelementptr inbounds %struct.H5VL_wrap_ctx_t, ptr %49, i32 0, i32 0
  %51 = load i32, ptr %50, align 8
  %52 = icmp eq i32 0, %51
  br i1 %52, label %53, label %73

53:                                               ; preds = %44
  %54 = load ptr, ptr %3, align 8
  %55 = call i32 @H5VL__free_vol_wrapper(ptr noundef %54)
  %56 = icmp slt i32 %55, 0
  br i1 %56, label %57, label %72

57:                                               ; preds = %53
  br label %58

58:                                               ; preds = %57
  br label %59

59:                                               ; preds = %58
  br label %60

60:                                               ; preds = %59
  %61 = load i64, ptr @H5E_VOL_g, align 8
  %62 = load i64, ptr @H5E_CANTRELEASE_g, align 8
  %63 = call i32 (ptr, ptr, i32, i64, i64, ptr, ...) @H5E_printf_stack(ptr noundef @.str.2, ptr noundef @__func__.H5VL_dec_vol_wrapper, i32 noundef 2327, i64 noundef %61, i64 noundef %62, ptr noundef @.str.89)
  br label %64

64:                                               ; preds = %60
  store i8 1, ptr %5, align 1
  %65 = load i8, ptr %5, align 1
  %66 = trunc i8 %65 to i1
  %67 = zext i1 %66 to i8
  store i8 %67, ptr %5, align 1
  br label %68

68:                                               ; preds = %64
  br label %69

69:                                               ; preds = %68
  store i32 -1, ptr %4, align 4
  br label %74

70:                                               ; No predecessors!
  br label %71

71:                                               ; preds = %70
  br label %72

72:                                               ; preds = %71, %53
  br label %73

73:                                               ; preds = %72, %44
  br label %74

74:                                               ; preds = %73, %69, %41, %21
  %75 = load i32, ptr %4, align 4
  ret i32 %75
}